target datalayout = "e-m:e-p270:32:32-p271:32:32-p272:64:64-i64:64-i128:128-f80:128-n8:16:32:64-S128"
target triple = "x86_64-pc-linux-gnu"

%struct.Vec_Int_t_ = type { i32, i32, ptr }
%struct.Abc_Ntk_t_ = type { i32, i32, ptr, ptr, ptr, ptr, ptr, ptr, ptr, ptr, ptr, ptr, ptr, [11 x i32], i32, i32, i32, i32, ptr, i32, ptr, ptr, i32, i32, i32, double, i32, %struct.Vec_Int_t_, ptr, ptr, ptr, ptr, ptr, float, i32, ptr, ptr, ptr, ptr, ptr, ptr, ptr, ptr, ptr, ptr, ptr, ptr, ptr, ptr, ptr, ptr, ptr, ptr, ptr, ptr, ptr }

; Function Attrs: nounwind uwtable
define ptr @Abc_NtkDarFrames(ptr noundef %0, i32 noundef %1, i32 noundef %2, i32 noundef %3, i32 noundef %4) #0 {
  %6 = alloca ptr, align 8
  %7 = alloca ptr, align 8
  %8 = alloca i32, align 4
  %9 = alloca i32, align 4
  %10 = alloca i32, align 4
  %11 = alloca i32, align 4
  %12 = alloca ptr, align 8
  %13 = alloca ptr, align 8
  %14 = alloca ptr, align 8
  store ptr %0, ptr %7, align 8
  store i32 %1, ptr %8, align 4
  store i32 %2, ptr %9, align 4
  store i32 %3, ptr %10, align 4
  store i32 %4, ptr %11, align 4
  %15 = load ptr, ptr %7, align 8
  %16 = call ptr @Abc_NtkToDar(ptr noundef %15, i32 noundef 0, i32 noundef 1)
  store ptr %16, ptr %13, align 8
  %17 = load ptr, ptr %13, align 8
  %18 = icmp eq ptr %17, null
  br i1 %18, label %19, label %20

19:                                               ; preds = %5
  store ptr null, ptr %6, align 8
  br label %48

20:                                               ; preds = %5
  %21 = load ptr, ptr %13, align 8
  store ptr %21, ptr %14, align 8
  %22 = load i32, ptr %8, align 4
  %23 = load i32, ptr %9, align 4
  %24 = load i32, ptr %10, align 4
  %25 = load i32, ptr %11, align 4
  %26 = call ptr @Saig_ManTimeframeSimplify(ptr noundef %21, i32 noundef %22, i32 noundef %23, i32 noundef %24, i32 noundef %25)
  store ptr %26, ptr %13, align 8
  %27 = load ptr, ptr %14, align 8
  call void @Aig_ManStop(ptr noundef %27)
  %28 = load ptr, ptr %13, align 8
  %29 = icmp eq ptr %28, null
  br i1 %29, label %30, label %31

30:                                               ; preds = %20
  store ptr null, ptr %6, align 8
  br label %48

31:                                               ; preds = %20
  %32 = load ptr, ptr %13, align 8
  %33 = call ptr @Abc_NtkFromAigPhase(ptr noundef %32)
  store ptr %33, ptr %12, align 8
  %34 = load ptr, ptr %7, align 8
  %35 = getelementptr inbounds %struct.Abc_Ntk_t_, ptr %34, i32 0, i32 2
  %36 = load ptr, ptr %35, align 8
  %37 = call ptr @Extra_UtilStrsav(ptr noundef %36)
  %38 = load ptr, ptr %12, align 8
  %39 = getelementptr inbounds %struct.Abc_Ntk_t_, ptr %38, i32 0, i32 2
  store ptr %37, ptr %39, align 8
  %40 = load ptr, ptr %7, align 8
  %41 = getelementptr inbounds %struct.Abc_Ntk_t_, ptr %40, i32 0, i32 3
  %42 = load ptr, ptr %41, align 8
  %43 = call ptr @Extra_UtilStrsav(ptr noundef %42)
  %44 = load ptr, ptr %12, align 8
  %45 = getelementptr inbounds %struct.Abc_Ntk_t_, ptr %44, i32 0, i32 3
  store ptr %43, ptr %45, align 8
  %46 = load ptr, ptr %13, align 8
  call void @Aig_ManStop(ptr noundef %46)
  %47 = load ptr, ptr %12, align 8
  store ptr %47, ptr %6, align 8
  br label %48

48:                                               ; preds = %31, %30, %19
  %49 = load ptr, ptr %6, align 8
  ret ptr %49
}