; Function Attrs: nounwind uwtable
define noundef ptr @Abc_NtkDarFrames(ptr noundef %0, i32 noundef %1, i32 noundef %2, i32 noundef %3, i32 noundef %4) local_unnamed_addr #1 {
  %6 = tail call ptr @Abc_NtkToDar(ptr noundef %0, i32 noundef 0, i32 noundef 1)
  %7 = icmp eq ptr %6, null
  br i1 %7, label %21, label %8

8:                                                ; preds = %5
  %9 = tail call ptr @Saig_ManTimeframeSimplify(ptr noundef nonnull %6, i32 noundef %1, i32 noundef %2, i32 noundef %3, i32 noundef %4) #19
  tail call void @Aig_ManStop(ptr noundef nonnull %6) #19
  %10 = icmp eq ptr %9, null
  br i1 %10, label %21, label %11

11:                                               ; preds = %8
  %12 = tail call ptr @Abc_NtkFromAigPhase(ptr noundef nonnull %9)
  %13 = getelementptr inbounds nuw i8, ptr %0, i64 8
  %14 = load ptr, ptr %13, align 8
  %15 = tail call ptr @Extra_UtilStrsav(ptr noundef %14) #19
  %16 = getelementptr inbounds nuw i8, ptr %12, i64 8
  store ptr %15, ptr %16, align 8
  %17 = getelementptr inbounds nuw i8, ptr %0, i64 16
  %18 = load ptr, ptr %17, align 8
  %19 = tail call ptr @Extra_UtilStrsav(ptr noundef %18) #19
  %20 = getelementptr inbounds nuw i8, ptr %12, i64 16
  store ptr %19, ptr %20, align 8
  tail call void @Aig_ManStop(ptr noundef nonnull %9) #19
  br label %21

21:                                               ; preds = %8, %5, %11
  %.0 = phi ptr [ %12, %11 ], [ null, %5 ], [ null, %8 ]
  ret ptr %.0
}